target datalayout = "e-m:e-p270:32:32-p271:32:32-p272:64:64-i64:64-i128:128-f80:128-n8:16:32:64-S128"
target triple = "x86_64-pc-linux-gnu"

%struct.exr_attr_chlist_t = type { i32, i32, ptr }
%struct._priv_exr_context_t = type { i8, i8, i8, i8, i8, i8, i8, i8, %struct.exr_attr_string_t, %struct.exr_attr_string_t, ptr, ptr, ptr, ptr, ptr, ptr, ptr, ptr, i32, i32, i32, i32, i32, float, ptr, ptr, ptr, i64, ptr, ptr, i64, i32, i32, i32, i32, %struct._priv_exr_part_t, ptr, ptr, %struct.exr_attribute_list, %union.pthread_mutex_t, i8, i8, [2 x i8], i32 }
%struct.exr_attr_string_t = type { i32, i32, ptr }
%struct._priv_exr_part_t = type { i32, i32, %struct.exr_attribute_list, ptr, ptr, ptr, ptr, ptr, ptr, ptr, ptr, ptr, ptr, ptr, ptr, ptr, ptr, %struct.exr_attr_box2i_t, %struct.exr_attr_box2i_t, i32, i32, i32, float, i32, i32, ptr, ptr, ptr, ptr, i64, i16, i16, i32, i64, i64 }
%struct.exr_attr_box2i_t = type { %struct.exr_attr_v2i_t, %struct.exr_attr_v2i_t }
%struct.exr_attr_v2i_t = type { i32, i32 }
%struct.exr_attribute_list = type { i32, i32, ptr, ptr }
%union.pthread_mutex_t = type { %struct.__pthread_mutex_s }
%struct.__pthread_mutex_s = type { i32, i32, i32, i32, i32, i16, i16, %struct.__pthread_internal_list }
%struct.__pthread_internal_list = type { ptr, ptr }

@.str = private unnamed_addr constant [55 x i8] c"Invalid channel list pointer to chlist_add_with_length\00", align 1
@.str.1 = private unnamed_addr constant [43 x i8] c"Negative number of channels requested (%d)\00", align 1

; Function Attrs: nounwind uwtable
define hidden i32 @exr_attr_chlist_init(ptr noundef %0, ptr noundef %1, i32 noundef %2) #0 {
  %4 = alloca i32, align 4
  %5 = alloca ptr, align 8
  %6 = alloca ptr, align 8
  %7 = alloca i32, align 4
  %8 = alloca %struct.exr_attr_chlist_t, align 8
  %9 = alloca ptr, align 8
  %10 = alloca i32, align 4
  store ptr %0, ptr %5, align 8, !tbaa !3
  store ptr %1, ptr %6, align 8, !tbaa !8
  store i32 %2, ptr %7, align 4, !tbaa !9
  call void @llvm.lifetime.start.p0(i64 16, ptr %8) #6
  call void @llvm.memset.p0.i64(ptr align 8 %8, i8 0, i64 16, i1 false)
  call void @llvm.lifetime.start.p0(i64 8, ptr %9) #6
  %11 = load ptr, ptr %5, align 8, !tbaa !3
  %12 = icmp ne ptr %11, null
  br i1 %12, label %14, label %13

13:                                               ; preds = %3
  store i32 2, ptr %4, align 4
  store i32 1, ptr %10, align 4
  br label %62

14:                                               ; preds = %3
  %15 = load ptr, ptr %6, align 8, !tbaa !8
  %16 = icmp ne ptr %15, null
  br i1 %16, label %23, label %17

17:                                               ; preds = %14
  %18 = load ptr, ptr %5, align 8, !tbaa !3
  %19 = getelementptr inbounds nuw %struct._priv_exr_context_t, ptr %18, i32 0, i32 13
  %20 = load ptr, ptr %19, align 8, !tbaa !11
  %21 = load ptr, ptr %5, align 8, !tbaa !3
  %22 = call i32 %20(ptr noundef %21, i32 noundef 3, ptr noundef @.str)
  store i32 %22, ptr %4, align 4
  store i32 1, ptr %10, align 4
  br label %62

23:                                               ; preds = %14
  %24 = load i32, ptr %7, align 4, !tbaa !9
  %25 = icmp slt i32 %24, 0
  br i1 %25, label %26, label %33

26:                                               ; preds = %23
  %27 = load ptr, ptr %5, align 8, !tbaa !3
  %28 = getelementptr inbounds nuw %struct._priv_exr_context_t, ptr %27, i32 0, i32 14
  %29 = load ptr, ptr %28, align 8, !tbaa !26
  %30 = load ptr, ptr %5, align 8, !tbaa !3
  %31 = load i32, ptr %7, align 4, !tbaa !9
  %32 = call i32 (ptr, i32, ptr, ...) %29(ptr noundef %30, i32 noundef 3, ptr noundef @.str.1, i32 noundef %31)
  store i32 %32, ptr %4, align 4
  store i32 1, ptr %10, align 4
  br label %62

33:                                               ; preds = %23
  %34 = load ptr, ptr %6, align 8, !tbaa !8
  call void @llvm.memcpy.p0.p0.i64(ptr align 8 %34, ptr align 8 %8, i64 16, i1 false), !tbaa.struct !27
  %35 = load i32, ptr %7, align 4, !tbaa !9
  %36 = icmp sgt i32 %35, 0
  br i1 %36, label %37, label %54

37:                                               ; preds = %33
  %38 = load ptr, ptr %5, align 8, !tbaa !3
  %39 = getelementptr inbounds nuw %struct._priv_exr_context_t, ptr %38, i32 0, i32 16
  %40 = load ptr, ptr %39, align 8, !tbaa !28
  %41 = load i32, ptr %7, align 4, !tbaa !9
  %42 = sext i32 %41 to i64
  %43 = mul i64 32, %42
  %44 = call ptr %40(i64 noundef %43)
  store ptr %44, ptr %9, align 8, !tbaa !8
  %45 = load ptr, ptr %9, align 8, !tbaa !8
  %46 = icmp eq ptr %45, null
  br i1 %46, label %47, label %53

47:                                               ; preds = %37
  %48 = load ptr, ptr %5, align 8, !tbaa !3
  %49 = getelementptr inbounds nuw %struct._priv_exr_context_t, ptr %48, i32 0, i32 12
  %50 = load ptr, ptr %49, align 8, !tbaa !29
  %51 = load ptr, ptr %5, align 8, !tbaa !3
  %52 = call i32 %50(ptr noundef %51, i32 noundef 1)
  store i32 %52, ptr %4, align 4
  store i32 1, ptr %10, align 4
  br label %62

53:                                               ; preds = %37
  br label %55

54:                                               ; preds = %33
  store ptr null, ptr %9, align 8, !tbaa !8
  br label %55

55:                                               ; preds = %54, %53
  %56 = load ptr, ptr %9, align 8, !tbaa !8
  %57 = load ptr, ptr %6, align 8, !tbaa !8
  %58 = getelementptr inbounds nuw %struct.exr_attr_chlist_t, ptr %57, i32 0, i32 2
  store ptr %56, ptr %58, align 8, !tbaa !30
  %59 = load i32, ptr %7, align 4, !tbaa !9
  %60 = load ptr, ptr %6, align 8, !tbaa !8
  %61 = getelementptr inbounds nuw %struct.exr_attr_chlist_t, ptr %60, i32 0, i32 1
  store i32 %59, ptr %61, align 4, !tbaa !32
  store i32 0, ptr %4, align 4
  store i32 1, ptr %10, align 4
  br label %62

62:                                               ; preds = %55, %47, %26, %17, %13
  call void @llvm.lifetime.end.p0(i64 8, ptr %9) #6
  call void @llvm.lifetime.end.p0(i64 16, ptr %8) #6
  %63 = load i32, ptr %4, align 4
  ret i32 %63
}