; Function Attrs: nounwind uwtable
define hidden i32 @exr_attr_chlist_init(ptr noundef %0, ptr noundef writeonly %1, i32 noundef %2) local_unnamed_addr #0 {
  %.not = icmp eq ptr %0, null
  br i1 %.not, label %30, label %4

4:                                                ; preds = %3
  %.not24 = icmp eq ptr %1, null
  br i1 %.not24, label %5, label %9

5:                                                ; preds = %4
  %6 = getelementptr inbounds nuw i8, ptr %0, i64 64
  %7 = load ptr, ptr %6, align 8, !tbaa !3
  %8 = tail call i32 %7(ptr noundef nonnull %0, i32 noundef 3, ptr noundef nonnull @.str) #6
  br label %30

9:                                                ; preds = %4
  %10 = icmp slt i32 %2, 0
  br i1 %10, label %11, label %15

11:                                               ; preds = %9
  %12 = getelementptr inbounds nuw i8, ptr %0, i64 72
  %13 = load ptr, ptr %12, align 8, !tbaa !22
  %14 = tail call i32 (ptr, i32, ptr, ...) %13(ptr noundef nonnull %0, i32 noundef 3, ptr noundef nonnull @.str.1, i32 noundef %2) #6
  br label %30

15:                                               ; preds = %9
  tail call void @llvm.memset.p0.i64(ptr noundef nonnull align 8 dereferenceable(16) %1, i8 0, i64 16, i1 false)
  %.not25 = icmp eq i32 %2, 0
  br i1 %.not25, label %27, label %16

16:                                               ; preds = %15
  %17 = getelementptr inbounds nuw i8, ptr %0, i64 88
  %18 = load ptr, ptr %17, align 8, !tbaa !23
  %19 = zext nneg i32 %2 to i64
  %20 = shl nuw nsw i64 %19, 5
  %21 = tail call ptr %18(i64 noundef %20) #6
  %22 = icmp eq ptr %21, null
  br i1 %22, label %23, label %27

23:                                               ; preds = %16
  %24 = getelementptr inbounds nuw i8, ptr %0, i64 56
  %25 = load ptr, ptr %24, align 8, !tbaa !24
  %26 = tail call i32 %25(ptr noundef nonnull %0, i32 noundef 1) #6
  br label %30

27:                                               ; preds = %15, %16
  %.0 = phi ptr [ %21, %16 ], [ null, %15 ]
  %28 = getelementptr inbounds nuw i8, ptr %1, i64 8
  store ptr %.0, ptr %28, align 8, !tbaa !25
  %29 = getelementptr inbounds nuw i8, ptr %1, i64 4
  store i32 %2, ptr %29, align 4, !tbaa !27
  br label %30

30:                                               ; preds = %3, %27, %23, %11, %5
  %.019 = phi i32 [ %14, %11 ], [ %26, %23 ], [ 0, %27 ], [ %8, %5 ], [ 2, %3 ]
  ret i32 %.019
}